; Function Attrs: mustprogress nofree nounwind willreturn memory(readwrite, inaccessiblemem: write) uwtable
define noundef double @_ZNK10open_spiel10algorithms10SearchNode8UCTValueEid(ptr noundef nonnull readonly align 8 captures(none) dereferenceable(80) %0, i32 noundef %1, double noundef %2) local_unnamed_addr #6 align 2 {
  %4 = getelementptr inbounds nuw i8, ptr %0, i64 32
  %5 = load ptr, ptr %4, align 8
  %6 = getelementptr inbounds nuw i8, ptr %0, i64 40
  %7 = load ptr, ptr %6, align 8
  %8 = icmp eq ptr %5, %7
  br i1 %8, label %15, label %9

9:                                                ; preds = %3
  %10 = getelementptr inbounds nuw i8, ptr %0, i64 16
  %11 = load i32, ptr %10, align 8
  %12 = sext i32 %11 to i64
  %13 = getelementptr inbounds double, ptr %5, i64 %12
  %14 = load double, ptr %13, align 8
  br label %31

15:                                               ; preds = %3
  %16 = getelementptr inbounds nuw i8, ptr %0, i64 20
  %17 = load i32, ptr %16, align 4
  %18 = icmp eq i32 %17, 0
  br i1 %18, label %31, label %19

19:                                               ; preds = %15
  %20 = getelementptr inbounds nuw i8, ptr %0, i64 24
  %21 = load double, ptr %20, align 8
  %22 = sitofp i32 %17 to double
  %23 = fdiv double %21, %22
  %24 = sitofp i32 %1 to double
  %25 = tail call noundef double @log(double noundef %24) #29
  %26 = load i32, ptr %16, align 4
  %27 = sitofp i32 %26 to double
  %28 = fdiv double %25, %27
  %29 = tail call double @sqrt(double noundef %28) #29
  %30 = tail call double @llvm.fmuladd.f64(double %2, double %29, double %23)
  br label %31

31:                                               ; preds = %15, %19, %9
  %.0 = phi double [ %30, %19 ], [ %14, %9 ], [ 0x7FF0000000000000, %15 ]
  ret double %.0
}